; ModuleID = '57/1564.c'
source_filename = "57/1564.c"
target datalayout = "e-m:e-p270:32:32-p271:32:32-p272:64:64-i64:64-f80:128-n8:16:32:64-S128"
target triple = "x86_64-pc-linux-gnu"

@.str = private unnamed_addr constant [3 x i8] c"%d\00", align 1
@.str.1 = private unnamed_addr constant [3 x i8] c"%s\00", align 1
@.str.2 = private unnamed_addr constant [4 x i8] c"%s\0A\00", align 1

; Function Attrs: noinline nounwind uwtable
define dso_local i32 @main() #0 {
  %1 = alloca i32, align 4
  %2 = alloca i32, align 4
  %3 = alloca i32, align 4
  %4 = alloca i32, align 4
  %5 = alloca [50 x i32], align 16
  %6 = alloca [50 x [50 x i8]], align 16
  %7 = alloca [50 x [50 x i8]], align 16
  store i32 0, i32* %1, align 4
  %8 = call i32 (i8*, ...) @__isoc99_scanf(i8* getelementptr inbounds ([3 x i8], [3 x i8]* @.str, i64 0, i64 0), i32* %2)
  store i32 0, i32* %3, align 4
  br label %9

9:                                                ; preds = %181, %0
  %10 = load i32, i32* %3, align 4
  %11 = load i32, i32* %2, align 4
  %12 = icmp slt i32 %10, %11
  br i1 %12, label %13, label %184

13:                                               ; preds = %9
  %14 = load i32, i32* %3, align 4
  %15 = sext i32 %14 to i64
  %16 = getelementptr inbounds [50 x [50 x i8]], [50 x [50 x i8]]* %6, i64 0, i64 %15
  %17 = getelementptr inbounds [50 x i8], [50 x i8]* %16, i64 0, i64 0
  %18 = call i32 (i8*, ...) @__isoc99_scanf(i8* getelementptr inbounds ([3 x i8], [3 x i8]* @.str.1, i64 0, i64 0), i8* %17)
  %19 = load i32, i32* %3, align 4
  %20 = sext i32 %19 to i64
  %21 = getelementptr inbounds [50 x [50 x i8]], [50 x [50 x i8]]* %6, i64 0, i64 %20
  %22 = getelementptr inbounds [50 x i8], [50 x i8]* %21, i64 0, i64 0
  %23 = call i64 @strlen(i8* %22) #3
  %24 = trunc i64 %23 to i32
  %25 = load i32, i32* %3, align 4
  %26 = sext i32 %25 to i64
  %27 = getelementptr inbounds [50 x i32], [50 x i32]* %5, i64 0, i64 %26
  store i32 %24, i32* %27, align 4
  %28 = load i32, i32* %3, align 4
  %29 = sext i32 %28 to i64
  %30 = getelementptr inbounds [50 x [50 x i8]], [50 x [50 x i8]]* %6, i64 0, i64 %29
  %31 = load i32, i32* %3, align 4
  %32 = sext i32 %31 to i64
  %33 = getelementptr inbounds [50 x i32], [50 x i32]* %5, i64 0, i64 %32
  %34 = load i32, i32* %33, align 4
  %35 = sub nsw i32 %34, 1
  %36 = sext i32 %35 to i64
  %37 = getelementptr inbounds [50 x i8], [50 x i8]* %30, i64 0, i64 %36
  %38 = load i8, i8* %37, align 1
  %39 = sext i8 %38 to i32
  %40 = icmp eq i32 %39, 114
  br i1 %40, label %41, label %68

41:                                               ; preds = %13
  store i32 0, i32* %4, align 4
  br label %42

42:                                               ; preds = %64, %41
  %43 = load i32, i32* %4, align 4
  %44 = load i32, i32* %3, align 4
  %45 = sext i32 %44 to i64
  %46 = getelementptr inbounds [50 x i32], [50 x i32]* %5, i64 0, i64 %45
  %47 = load i32, i32* %46, align 4
  %48 = sub nsw i32 %47, 2
  %49 = icmp slt i32 %43, %48
  br i1 %49, label %50, label %67

50:                                               ; preds = %42
  %51 = load i32, i32* %3, align 4
  %52 = sext i32 %51 to i64
  %53 = getelementptr inbounds [50 x [50 x i8]], [50 x [50 x i8]]* %6, i64 0, i64 %52
  %54 = load i32, i32* %4, align 4
  %55 = sext i32 %54 to i64
  %56 = getelementptr inbounds [50 x i8], [50 x i8]* %53, i64 0, i64 %55
  %57 = load i8, i8* %56, align 1
  %58 = load i32, i32* %3, align 4
  %59 = sext i32 %58 to i64
  %60 = getelementptr inbounds [50 x [50 x i8]], [50 x [50 x i8]]* %7, i64 0, i64 %59
  %61 = load i32, i32* %4, align 4
  %62 = sext i32 %61 to i64
  %63 = getelementptr inbounds [50 x i8], [50 x i8]* %60, i64 0, i64 %62
  store i8 %57, i8* %63, align 1
  br label %64

64:                                               ; preds = %50
  %65 = load i32, i32* %4, align 4
  %66 = add nsw i32 %65, 1
  store i32 %66, i32* %4, align 4
  br label %42

67:                                               ; preds = %42
  br label %68

68:                                               ; preds = %67, %13
  %69 = load i32, i32* %3, align 4
  %70 = sext i32 %69 to i64
  %71 = getelementptr inbounds [50 x [50 x i8]], [50 x [50 x i8]]* %7, i64 0, i64 %70
  %72 = load i32, i32* %3, align 4
  %73 = sext i32 %72 to i64
  %74 = getelementptr inbounds [50 x i32], [50 x i32]* %5, i64 0, i64 %73
  %75 = load i32, i32* %74, align 4
  %76 = sub nsw i32 %75, 1
  %77 = sext i32 %76 to i64
  %78 = getelementptr inbounds [50 x i8], [50 x i8]* %71, i64 0, i64 %77
  store i8 0, i8* %78, align 1
  %79 = load i32, i32* %3, align 4
  %80 = sext i32 %79 to i64
  %81 = getelementptr inbounds [50 x [50 x i8]], [50 x [50 x i8]]* %6, i64 0, i64 %80
  %82 = load i32, i32* %3, align 4
  %83 = sext i32 %82 to i64
  %84 = getelementptr inbounds [50 x i32], [50 x i32]* %5, i64 0, i64 %83
  %85 = load i32, i32* %84, align 4
  %86 = sub nsw i32 %85, 1
  %87 = sext i32 %86 to i64
  %88 = getelementptr inbounds [50 x i8], [50 x i8]* %81, i64 0, i64 %87
  %89 = load i8, i8* %88, align 1
  %90 = sext i8 %89 to i32
  %91 = icmp eq i32 %90, 103
  br i1 %91, label %92, label %119

92:                                               ; preds = %68
  store i32 0, i32* %4, align 4
  br label %93

93:                                               ; preds = %115, %92
  %94 = load i32, i32* %4, align 4
  %95 = load i32, i32* %3, align 4
  %96 = sext i32 %95 to i64
  %97 = getelementptr inbounds [50 x i32], [50 x i32]* %5, i64 0, i64 %96
  %98 = load i32, i32* %97, align 4
  %99 = sub nsw i32 %98, 3
  %100 = icmp slt i32 %94, %99
  br i1 %100, label %101, label %118

101:                                              ; preds = %93
  %102 = load i32, i32* %3, align 4
  %103 = sext i32 %102 to i64
  %104 = getelementptr inbounds [50 x [50 x i8]], [50 x [50 x i8]]* %6, i64 0, i64 %103
  %105 = load i32, i32* %4, align 4
  %106 = sext i32 %105 to i64
  %107 = getelementptr inbounds [50 x i8], [50 x i8]* %104, i64 0, i64 %106
  %108 = load i8, i8* %107, align 1
  %109 = load i32, i32* %3, align 4
  %110 = sext i32 %109 to i64
  %111 = getelementptr inbounds [50 x [50 x i8]], [50 x [50 x i8]]* %7, i64 0, i64 %110
  %112 = load i32, i32* %4, align 4
  %113 = sext i32 %112 to i64
  %114 = getelementptr inbounds [50 x i8], [50 x i8]* %111, i64 0, i64 %113
  store i8 %108, i8* %114, align 1
  br label %115

115:                                              ; preds = %101
  %116 = load i32, i32* %4, align 4
  %117 = add nsw i32 %116, 1
  store i32 %117, i32* %4, align 4
  br label %93

118:                                              ; preds = %93
  br label %119

119:                                              ; preds = %118, %68
  %120 = load i32, i32* %3, align 4
  %121 = sext i32 %120 to i64
  %122 = getelementptr inbounds [50 x [50 x i8]], [50 x [50 x i8]]* %7, i64 0, i64 %121
  %123 = load i32, i32* %3, align 4
  %124 = sext i32 %123 to i64
  %125 = getelementptr inbounds [50 x i32], [50 x i32]* %5, i64 0, i64 %124
  %126 = load i32, i32* %125, align 4
  %127 = sub nsw i32 %126, 2
  %128 = sext i32 %127 to i64
  %129 = getelementptr inbounds [50 x i8], [50 x i8]* %122, i64 0, i64 %128
  store i8 0, i8* %129, align 1
  %130 = load i32, i32* %3, align 4
  %131 = sext i32 %130 to i64
  %132 = getelementptr inbounds [50 x [50 x i8]], [50 x [50 x i8]]* %6, i64 0, i64 %131
  %133 = load i32, i32* %3, align 4
  %134 = sext i32 %133 to i64
  %135 = getelementptr inbounds [50 x i32], [50 x i32]* %5, i64 0, i64 %134
  %136 = load i32, i32* %135, align 4
  %137 = sub nsw i32 %136, 1
  %138 = sext i32 %137 to i64
  %139 = getelementptr inbounds [50 x i8], [50 x i8]* %132, i64 0, i64 %138
  %140 = load i8, i8* %139, align 1
  %141 = sext i8 %140 to i32
  %142 = icmp eq i32 %141, 121
  br i1 %142, label %143, label %170

143:                                              ; preds = %119
  store i32 0, i32* %4, align 4
  br label %144

144:                                              ; preds = %166, %143
  %145 = load i32, i32* %4, align 4
  %146 = load i32, i32* %3, align 4
  %147 = sext i32 %146 to i64
  %148 = getelementptr inbounds [50 x i32], [50 x i32]* %5, i64 0, i64 %147
  %149 = load i32, i32* %148, align 4
  %150 = sub nsw i32 %149, 2
  %151 = icmp slt i32 %145, %150
  br i1 %151, label %152, label %169

152:                                              ; preds = %144
  %153 = load i32, i32* %3, align 4
  %154 = sext i32 %153 to i64
  %155 = getelementptr inbounds [50 x [50 x i8]], [50 x [50 x i8]]* %6, i64 0, i64 %154
  %156 = load i32, i32* %4, align 4
  %157 = sext i32 %156 to i64
  %158 = getelementptr inbounds [50 x i8], [50 x i8]* %155, i64 0, i64 %157
  %159 = load i8, i8* %158, align 1
  %160 = load i32, i32* %3, align 4
  %161 = sext i32 %160 to i64
  %162 = getelementptr inbounds [50 x [50 x i8]], [50 x [50 x i8]]* %7, i64 0, i64 %161
  %163 = load i32, i32* %4, align 4
  %164 = sext i32 %163 to i64
  %165 = getelementptr inbounds [50 x i8], [50 x i8]* %162, i64 0, i64 %164
  store i8 %159, i8* %165, align 1
  br label %166

166:                                              ; preds = %152
  %167 = load i32, i32* %4, align 4
  %168 = add nsw i32 %167, 1
  store i32 %168, i32* %4, align 4
  br label %144

169:                                              ; preds = %144
  br label %170

170:                                              ; preds = %169, %119
  %171 = load i32, i32* %3, align 4
  %172 = sext i32 %171 to i64
  %173 = getelementptr inbounds [50 x [50 x i8]], [50 x [50 x i8]]* %7, i64 0, i64 %172
  %174 = load i32, i32* %3, align 4
  %175 = sext i32 %174 to i64
  %176 = getelementptr inbounds [50 x i32], [50 x i32]* %5, i64 0, i64 %175
  %177 = load i32, i32* %176, align 4
  %178 = sub nsw i32 %177, 1
  %179 = sext i32 %178 to i64
  %180 = getelementptr inbounds [50 x i8], [50 x i8]* %173, i64 0, i64 %179
  store i8 0, i8* %180, align 1
  br label %181

181:                                              ; preds = %170
  %182 = load i32, i32* %3, align 4
  %183 = add nsw i32 %182, 1
  store i32 %183, i32* %3, align 4
  br label %9

184:                                              ; preds = %9
  store i32 0, i32* %3, align 4
  br label %185

185:                                              ; preds = %195, %184
  %186 = load i32, i32* %3, align 4
  %187 = load i32, i32* %2, align 4
  %188 = icmp slt i32 %186, %187
  br i1 %188, label %189, label %198

189:                                              ; preds = %185
  %190 = load i32, i32* %3, align 4
  %191 = sext i32 %190 to i64
  %192 = getelementptr inbounds [50 x [50 x i8]], [50 x [50 x i8]]* %7, i64 0, i64 %191
  %193 = getelementptr inbounds [50 x i8], [50 x i8]* %192, i64 0, i64 0
  %194 = call i32 (i8*, ...) @printf(i8* getelementptr inbounds ([4 x i8], [4 x i8]* @.str.2, i64 0, i64 0), i8* %193)
  br label %195

195:                                              ; preds = %189
  %196 = load i32, i32* %3, align 4
  %197 = add nsw i32 %196, 1
  store i32 %197, i32* %3, align 4
  br label %185

198:                                              ; preds = %185
  ret i32 0
}

declare dso_local i32 @__isoc99_scanf(i8*, ...) #1

; Function Attrs: nounwind readonly
declare dso_local i64 @strlen(i8*) #2

declare dso_local i32 @printf(i8*, ...) #1


!llvm.module.flags = !{!0}
!llvm.ident = !{!1}

!0 = !{i32 1, !"wchar_size", i32 4}
!1 = !{!"clang version 10.0.0-4ubuntu1 "}
